; ModuleID = 'source-C-CXX/4/171.c'
source_filename = "source-C-CXX/4/171.c"
target datalayout = "e-m:e-p270:32:32-p271:32:32-p272:64:64-i64:64-f80:128-n8:16:32:64-S128"
target triple = "x86_64-pc-linux-gnu"

@.str = private unnamed_addr constant [3 x i8] c"%f\00", align 1
@.str.1 = private unnamed_addr constant [6 x i8] c"%s %s\00", align 1
@.str.2 = private unnamed_addr constant [6 x i8] c"error\00", align 1
@.str.3 = private unnamed_addr constant [4 x i8] c"yes\00", align 1
@.str.4 = private unnamed_addr constant [3 x i8] c"no\00", align 1
@.str.5 = private unnamed_addr constant [3 x i8] c"%d\00", align 1

; Function Attrs: nofree nounwind sspstrong uwtable
define dso_local i32 @main() local_unnamed_addr #0 {
  %1 = alloca float, align 4
  %2 = alloca i32, align 4
  %3 = alloca [500 x i8], align 16
  %4 = alloca [500 x i8], align 16
  %5 = bitcast float* %1 to i8*
  call void @llvm.lifetime.start.p0i8(i64 4, i8* nonnull %5) #4
  %6 = bitcast i32* %2 to i8*
  call void @llvm.lifetime.start.p0i8(i64 4, i8* nonnull %6) #4
  %7 = getelementptr inbounds [500 x i8], [500 x i8]* %3, i64 0, i64 0
  call void @llvm.lifetime.start.p0i8(i64 500, i8* nonnull %7) #4
  %8 = getelementptr inbounds [500 x i8], [500 x i8]* %4, i64 0, i64 0
  call void @llvm.lifetime.start.p0i8(i64 500, i8* nonnull %8) #4
  %9 = call i32 (i8*, ...) @__isoc99_scanf(i8* getelementptr inbounds ([3 x i8], [3 x i8]* @.str, i64 0, i64 0), float* nonnull %1)
  %10 = call i32 (i8*, ...) @__isoc99_scanf(i8* getelementptr inbounds ([6 x i8], [6 x i8]* @.str.1, i64 0, i64 0), i8* nonnull %7, i8* nonnull %8)
  %11 = call i64 @strlen(i8* noundef nonnull %7) #5
  %12 = trunc i64 %11 to i32
  %13 = call i64 @strlen(i8* noundef nonnull %8) #5
  %14 = trunc i64 %13 to i32
  %15 = icmp eq i32 %12, %14
  br i1 %15, label %16, label %20

16:                                               ; preds = %0
  %17 = icmp sgt i32 %12, 0
  br i1 %17, label %18, label %46

18:                                               ; preds = %16
  %19 = and i64 %11, 4294967295
  br label %22

20:                                               ; preds = %0
  %21 = call i32 (i8*, ...) @printf(i8* nonnull dereferenceable(1) getelementptr inbounds ([6 x i8], [6 x i8]* @.str.2, i64 0, i64 0))
  br label %56

22:                                               ; preds = %18, %38
  %23 = phi i64 [ 0, %18 ], [ %42, %38 ]
  %24 = phi float [ 0.000000e+00, %18 ], [ %41, %38 ]
  %25 = getelementptr inbounds [500 x i8], [500 x i8]* %3, i64 0, i64 %23
  %26 = load i8, i8* %25, align 1, !tbaa !5
  %27 = sext i8 %26 to i32
  switch i32 %27, label %28 [
    i32 65, label %31
    i32 84, label %31
    i32 71, label %31
    i32 67, label %31
  ]

28:                                               ; preds = %22
  %29 = trunc i64 %23 to i32
  store i32 %29, i32* %2, align 4, !tbaa !8
  %30 = call i32 (i8*, ...) @printf(i8* nonnull dereferenceable(1) getelementptr inbounds ([6 x i8], [6 x i8]* @.str.2, i64 0, i64 0))
  br label %56

31:                                               ; preds = %22, %22, %22, %22
  %32 = getelementptr inbounds [500 x i8], [500 x i8]* %4, i64 0, i64 %23
  %33 = load i8, i8* %32, align 1, !tbaa !5
  %34 = sext i8 %33 to i32
  switch i32 %34, label %35 [
    i32 65, label %38
    i32 84, label %38
    i32 71, label %38
    i32 67, label %38
  ]

35:                                               ; preds = %31
  %36 = trunc i64 %23 to i32
  store i32 %36, i32* %2, align 4, !tbaa !8
  %37 = call i32 (i8*, ...) @printf(i8* nonnull dereferenceable(1) getelementptr inbounds ([6 x i8], [6 x i8]* @.str.2, i64 0, i64 0))
  br label %56

38:                                               ; preds = %31, %31, %31, %31
  %39 = icmp eq i8 %26, %33
  %40 = fadd float %24, 1.000000e+00
  %41 = select i1 %39, float %40, float %24
  %42 = add nuw nsw i64 %23, 1
  %43 = icmp eq i64 %42, %19
  br i1 %43, label %44, label %22, !llvm.loop !10

44:                                               ; preds = %38
  %45 = trunc i64 %11 to i32
  br label %46

46:                                               ; preds = %44, %16
  %47 = phi i32 [ 0, %16 ], [ %45, %44 ]
  %48 = phi float [ 0.000000e+00, %16 ], [ %41, %44 ]
  store i32 %47, i32* %2, align 4, !tbaa !8
  %49 = sitofp i32 %12 to float
  %50 = fdiv float %48, %49
  %51 = load float, float* %1, align 4, !tbaa !12
  %52 = fcmp ult float %50, %51
  %53 = select i1 %52, i8* getelementptr inbounds ([3 x i8], [3 x i8]* @.str.4, i64 0, i64 0), i8* getelementptr inbounds ([4 x i8], [4 x i8]* @.str.3, i64 0, i64 0)
  %54 = call i32 (i8*, ...) @printf(i8* nonnull dereferenceable(1) %53)
  %55 = call i32 (i8*, ...) @__isoc99_scanf(i8* getelementptr inbounds ([3 x i8], [3 x i8]* @.str.5, i64 0, i64 0), i32* nonnull %2)
  br label %56

56:                                               ; preds = %46, %35, %28, %20
  call void @llvm.lifetime.end.p0i8(i64 500, i8* nonnull %8) #4
  call void @llvm.lifetime.end.p0i8(i64 500, i8* nonnull %7) #4
  call void @llvm.lifetime.end.p0i8(i64 4, i8* nonnull %6) #4
  call void @llvm.lifetime.end.p0i8(i64 4, i8* nonnull %5) #4
  ret i32 0
}

; Function Attrs: argmemonly mustprogress nofree nosync nounwind willreturn
declare void @llvm.lifetime.start.p0i8(i64 immarg, i8* nocapture) #1

; Function Attrs: nofree nounwind
declare noundef i32 @__isoc99_scanf(i8* nocapture noundef readonly, ...) local_unnamed_addr #2

; Function Attrs: argmemonly mustprogress nofree nounwind readonly willreturn
declare i64 @strlen(i8* nocapture) local_unnamed_addr #3

; Function Attrs: nofree nounwind
declare noundef i32 @printf(i8* nocapture noundef readonly, ...) local_unnamed_addr #2

; Function Attrs: argmemonly mustprogress nofree nosync nounwind willreturn
declare void @llvm.lifetime.end.p0i8(i64 immarg, i8* nocapture) #1


!llvm.module.flags = !{!0, !1, !2, !3}
!llvm.ident = !{!4}

!0 = !{i32 1, !"wchar_size", i32 4}
!1 = !{i32 7, !"PIC Level", i32 2}
!2 = !{i32 7, !"PIE Level", i32 2}
!3 = !{i32 7, !"uwtable", i32 1}
!4 = !{!"clang version 13.0.0"}
!5 = !{!6, !6, i64 0}
!6 = !{!"omnipotent char", !7, i64 0}
!7 = !{!"Simple C/C++ TBAA"}
!8 = !{!9, !9, i64 0}
!9 = !{!"int", !6, i64 0}
!10 = distinct !{!10, !11}
!11 = !{!"llvm.loop.mustprogress"}
!12 = !{!13, !13, i64 0}
!13 = !{!"float", !6, i64 0}
